target datalayout = "e-m:e-p270:32:32-p271:32:32-p272:64:64-i64:64-i128:128-f80:128-n8:16:32:64-S128"
target triple = "x86_64-pc-linux-gnu"

%struct.rb_data_type_struct = type { ptr, %struct.anon, ptr, ptr, i64 }
%struct.anon = type { ptr, ptr, ptr, ptr, [1 x ptr] }

@ossl_x509_type = internal constant %struct.rb_data_type_struct { ptr @.str.34, %struct.anon { ptr null, ptr @ossl_x509_free, ptr null, ptr null, [1 x ptr] zeroinitializer }, ptr null, ptr null, i64 33 }, align 8
@eX509CertError = internal global i64 0, align 8
@rb_eRuntimeError = external global i64, align 8
@.str = private unnamed_addr constant [25 x i8] c"CERT wasn't initialized!\00", align 1

; Function Attrs: inlinehint nounwind sspstrong willreturn memory(none) uwtable
define internal zeroext i1 @RB_NIL_P(i64 noundef %0) #9 {
  %2 = alloca i64, align 8
  store i64 %0, ptr %2, align 8, !tbaa !11
  %3 = load i64, ptr %2, align 8, !tbaa !11
  %4 = icmp eq i64 %3, 4
  ret i1 %4
}

; Function Attrs: nounwind sspstrong uwtable
define internal i64 @ossl_x509_sign(i64 noundef %0, i64 noundef %1, i64 noundef %2) #0 {
  %4 = alloca i64, align 8
  %5 = alloca i64, align 8
  %6 = alloca i64, align 8
  %7 = alloca ptr, align 8
  %8 = alloca ptr, align 8
  %9 = alloca ptr, align 8
  store i64 %0, ptr %4, align 8, !tbaa !11
  store i64 %1, ptr %5, align 8, !tbaa !11
  store i64 %2, ptr %6, align 8, !tbaa !11
  call void @llvm.lifetime.start.p0(i64 8, ptr %7) #15
  call void @llvm.lifetime.start.p0(i64 8, ptr %8) #15
  call void @llvm.lifetime.start.p0(i64 8, ptr %9) #15
  %10 = load i64, ptr %5, align 8, !tbaa !11
  %11 = call ptr @GetPrivPKeyPtr(i64 noundef %10)
  store ptr %11, ptr %8, align 8, !tbaa !33
  %12 = load i64, ptr %6, align 8, !tbaa !11
  %13 = call zeroext i1 @RB_NIL_P(i64 noundef %12) #17
  br i1 %13, label %14, label %15

14:                                               ; preds = %3
  store ptr null, ptr %9, align 8, !tbaa !35
  br label %18

15:                                               ; preds = %3
  %16 = load i64, ptr %6, align 8, !tbaa !11
  %17 = call ptr @ossl_evp_get_digestbyname(i64 noundef %16)
  store ptr %17, ptr %9, align 8, !tbaa !35
  br label %18

18:                                               ; preds = %15, %14
  br label %19

19:                                               ; preds = %18
  %20 = load i64, ptr %4, align 8, !tbaa !11
  %21 = call ptr @rb_check_typeddata(i64 noundef %20, ptr noundef @ossl_x509_type)
  store ptr %21, ptr %7, align 8, !tbaa !6
  %22 = load ptr, ptr %7, align 8, !tbaa !6
  %23 = icmp ne ptr %22, null
  br i1 %23, label %26, label %24

24:                                               ; preds = %19
  %25 = load i64, ptr @rb_eRuntimeError, align 8, !tbaa !11
  call void (i64, ptr, ...) @ossl_raise(i64 noundef %25, ptr noundef @.str) #16
  unreachable

26:                                               ; preds = %19
  br label %27

27:                                               ; preds = %26
  br label %28

28:                                               ; preds = %27
  %29 = load ptr, ptr %7, align 8, !tbaa !6
  %30 = load ptr, ptr %8, align 8, !tbaa !33
  %31 = load ptr, ptr %9, align 8, !tbaa !35
  %32 = call i32 @X509_sign(ptr noundef %29, ptr noundef %30, ptr noundef %31)
  %33 = icmp ne i32 %32, 0
  br i1 %33, label %36, label %34

34:                                               ; preds = %28
  %35 = load i64, ptr @eX509CertError, align 8, !tbaa !11
  call void (i64, ptr, ...) @ossl_raise(i64 noundef %35, ptr noundef null) #16
  unreachable

36:                                               ; preds = %28
  %37 = load i64, ptr %4, align 8, !tbaa !11
  call void @llvm.lifetime.end.p0(i64 8, ptr %9) #15
  call void @llvm.lifetime.end.p0(i64 8, ptr %8) #15
  call void @llvm.lifetime.end.p0(i64 8, ptr %7) #15
  ret i64 %37
}