; Function Attrs: nounwind sspstrong uwtable
define internal noundef i64 @ossl_x509_sign(i64 noundef returned %0, i64 noundef %1, i64 noundef %2) #0 {
  %4 = tail call ptr @GetPrivPKeyPtr(i64 noundef %1) #5
  %5 = icmp eq i64 %2, 4
  br i1 %5, label %8, label %6

6:                                                ; preds = %3
  %7 = tail call ptr @ossl_evp_get_digestbyname(i64 noundef %2) #5
  br label %8

8:                                                ; preds = %3, %6
  %.0 = phi ptr [ %7, %6 ], [ null, %3 ]
  %9 = tail call ptr @rb_check_typeddata(i64 noundef %0, ptr noundef nonnull @ossl_x509_type) #5
  %.not = icmp eq ptr %9, null
  br i1 %.not, label %10, label %12

10:                                               ; preds = %8
  %11 = load i64, ptr @rb_eRuntimeError, align 8, !tbaa !6
  tail call void (i64, ptr, ...) @ossl_raise(i64 noundef %11, ptr noundef nonnull @.str) #6
  unreachable

12:                                               ; preds = %8
  %13 = tail call i32 @X509_sign(ptr noundef nonnull %9, ptr noundef %4, ptr noundef %.0) #5
  %.not9 = icmp eq i32 %13, 0
  br i1 %.not9, label %14, label %16

14:                                               ; preds = %12
  %15 = load i64, ptr @eX509CertError, align 8, !tbaa !6
  tail call void (i64, ptr, ...) @ossl_raise(i64 noundef %15, ptr noundef null) #6
  unreachable

16:                                               ; preds = %12
  ret i64 %0
}